; Function Attrs: nounwind uwtable
define hidden double @inStream_readDouble(ptr nocapture noundef %0) local_unnamed_addr #0 {
  %2 = getelementptr inbounds i8, ptr %0, i64 12
  %3 = load i16, ptr %2, align 4
  %.not.i = icmp eq i16 %3, 0
  br i1 %.not.i, label %4, label %readBytes.exit

4:                                                ; preds = %1
  %5 = getelementptr inbounds i8, ptr %0, i64 8
  %6 = load i32, ptr %5, align 8
  %7 = icmp slt i32 %6, 8
  br i1 %7, label %8, label %9

8:                                                ; preds = %4
  store i16 113, ptr %2, align 4
  br label %readBytes.exit

9:                                                ; preds = %4
  %10 = load ptr, ptr %0, align 8
  %.0.copyload = load double, ptr %10, align 1
  %11 = getelementptr inbounds i8, ptr %10, i64 8
  store ptr %11, ptr %0, align 8
  %12 = add nsw i32 %6, -8
  store i32 %12, ptr %5, align 8
  br label %readBytes.exit

readBytes.exit:                                   ; preds = %1, %8, %9
  %.0 = phi double [ 0.000000e+00, %8 ], [ %.0.copyload, %9 ], [ 0.000000e+00, %1 ]
  %13 = tail call double @stream_encodeDouble(double noundef %.0) #9
  ret double %13
}